; Function Attrs: mustprogress uwtable
define internal void @"_ZNSt17_Function_handlerIFN7rocksdb6StatusEvEZNS0_18WriteUnpreparedTxn12SingleDeleteEPNS0_18ColumnFamilyHandleERKNS0_10SlicePartsEbE3$_0E9_M_invokeERKSt9_Any_data"(ptr dead_on_unwind noalias writable sret(%"class.rocksdb::Status") align 8 %0, ptr noundef nonnull readonly align 8 captures(none) dereferenceable(16) %1) #4 align 2 {
  %.val = load ptr, ptr %1, align 8, !tbaa !336
  %3 = load ptr, ptr %.val, align 8, !tbaa !787, !noalias !789
  %4 = getelementptr inbounds nuw i8, ptr %.val, i64 8
  %5 = load ptr, ptr %4, align 8, !tbaa !796, !noalias !789
  %6 = load ptr, ptr %5, align 8, !tbaa !327, !noalias !789
  %7 = getelementptr inbounds nuw i8, ptr %.val, i64 16
  %8 = load ptr, ptr %7, align 8, !tbaa !797, !noalias !789
  %9 = getelementptr inbounds nuw i8, ptr %.val, i64 24
  %10 = load ptr, ptr %9, align 8, !tbaa !798, !noalias !789
  %11 = load i8, ptr %10, align 1, !tbaa !33, !range !37, !noalias !789, !noundef !38
  %12 = trunc nuw i8 %11 to i1
  tail call void @_ZN7rocksdb19TransactionBaseImpl12SingleDeleteEPNS_18ColumnFamilyHandleERKNS_10SlicePartsEb(ptr dead_on_unwind writable sret(%"class.rocksdb::Status") align 8 %0, ptr noundef nonnull align 8 dereferenceable(400) %3, ptr noundef %6, ptr noundef nonnull align 8 dereferenceable(12) %8, i1 noundef zeroext %12)
  ret void
}